ccollections
OrderedDict
p0
((lp1
(lp2
S'epoch'
p3
a(lp4
I0
aI1
aI2
aaa(lp5
S'error'
p6
a(lp7
cnumpy.core.multiarray
_reconstruct
p8
(cnumpy
ndarray
p9
(I0
tp10
S'b'
p11
tp12
Rp13
(I1
(tcnumpy
dtype
p14
(S'f8'
p15
I0
I1
tp16
Rp17
(I3
S'<'
p18
NNNI-1
I-1
I0
tp19
bI00
S'\x00\x00\x00\xc0\xbe<\xf0@'
p20
tp21
bag8
(g9
(I0
tp22
g11
tp23
Rp24
(I1
(tg17
I00
S'\x00\x00\x00\x00\x00\x00\x00\x80'
p25
tp26
bag8
(g9
(I0
tp27
g11
tp28
Rp29
(I1
(tg17
I00
S'\x00\x00\x00\x00\xc9M\x97@'
p30
tp31
baaa(lp32
S'accuracy'
p33
a(lp34
g8
(g9
(I0
tp35
g11
tp36
Rp37
(I1
(tg14
(S'f4'
p38
I0
I1
tp39
Rp40
(I3
S'<'
p41
NNNI-1
I-1
I0
tp42
bI00
S'\x00\x00\x00\x00'
p43
tp44
bag8
(g9
(I0
tp45
g11
tp46
Rp47
(I1
(tg40
I00
S'\x00\x00\x80?'
p48
tp49
bag8
(g9
(I0
tp50
g11
tp51
Rp52
(I1
(tg40
I00
S'\x00\x00\x00\x00'
p53
tp54
baaatp55
Rp56
.